; Function Attrs: nounwind uwtable
define i64 @glfwGetX11Monitor(ptr noundef readonly captures(none) %0) local_unnamed_addr #0 {
  %2 = load i32, ptr @_glfw, align 8, !tbaa !208
  %.not = icmp eq i32 %2, 0
  br i1 %.not, label %3, label %4

3:                                                ; preds = %1
  tail call void (i32, ptr, ...) @_glfwInputError(i32 noundef 65537, ptr noundef null) #9
  br label %10

4:                                                ; preds = %1
  %5 = load i32, ptr getelementptr inbounds nuw (i8, ptr @_glfw, i64 40), align 8, !tbaa !209
  %.not2 = icmp eq i32 %5, 393220
  br i1 %.not2, label %7, label %6

6:                                                ; preds = %4
  tail call void (i32, ptr, ...) @_glfwInputError(i32 noundef 65550, ptr noundef nonnull @.str.4) #9
  br label %10

7:                                                ; preds = %4
  %8 = getelementptr inbounds nuw i8, ptr %0, i64 288
  %9 = load i64, ptr %8, align 8, !tbaa !117
  br label %10

10:                                               ; preds = %7, %6, %3
  %.0 = phi i64 [ 0, %6 ], [ %9, %7 ], [ 0, %3 ]
  ret i64 %.0
}